target datalayout = "e-m:e-p270:32:32-p271:32:32-p272:64:64-i64:64-i128:128-f80:128-n8:16:32:64-S128"
target triple = "x86_64-pc-linux-gnu"

%struct.KDF_X942 = type { ptr, %struct.PROV_DIGEST, ptr, i64, ptr, i64, ptr, ptr, ptr, ptr, i64, i64, i64, i64, i64, ptr, i64, i32 }
%struct.PROV_DIGEST = type { ptr, ptr, ptr }

@.str = private unnamed_addr constant [52 x i8] c"../openssl/providers/implementations/kdfs/x942kdf.c\00", align 1

; Function Attrs: nounwind uwtable
define internal void @x942kdf_free(ptr noundef %0) #0 {
  %2 = alloca ptr, align 8
  %3 = alloca ptr, align 8
  store ptr %0, ptr %2, align 8, !tbaa !3
  call void @llvm.lifetime.start.p0(i64 8, ptr %3) #6
  %4 = load ptr, ptr %2, align 8, !tbaa !3
  store ptr %4, ptr %3, align 8, !tbaa !3
  %5 = load ptr, ptr %3, align 8, !tbaa !3
  %6 = icmp ne ptr %5, null
  br i1 %6, label %7, label %10

7:                                                ; preds = %1
  %8 = load ptr, ptr %3, align 8, !tbaa !3
  call void @x942kdf_reset(ptr noundef %8)
  %9 = load ptr, ptr %3, align 8, !tbaa !3
  call void @CRYPTO_free(ptr noundef %9, ptr noundef @.str, i32 noundef 374)
  br label %10

10:                                               ; preds = %7, %1
  call void @llvm.lifetime.end.p0(i64 8, ptr %3) #6
  ret void
}

; Function Attrs: nounwind uwtable
define internal ptr @x942kdf_new(ptr noundef %0) #0 {
  %2 = alloca ptr, align 8
  %3 = alloca ptr, align 8
  %4 = alloca ptr, align 8
  %5 = alloca i32, align 4
  store ptr %0, ptr %3, align 8, !tbaa !3
  call void @llvm.lifetime.start.p0(i64 8, ptr %4) #6
  %6 = call i32 @ossl_prov_is_running()
  %7 = icmp ne i32 %6, 0
  br i1 %7, label %9, label %8

8:                                                ; preds = %1
  store ptr null, ptr %2, align 8
  store i32 1, ptr %5, align 4
  br label %21

9:                                                ; preds = %1
  %10 = call noalias ptr @CRYPTO_zalloc(i64 noundef 160, ptr noundef @.str, i32 noundef 341)
  store ptr %10, ptr %4, align 8, !tbaa !3
  %11 = load ptr, ptr %4, align 8, !tbaa !3
  %12 = icmp eq ptr %11, null
  br i1 %12, label %13, label %14

13:                                               ; preds = %9
  store ptr null, ptr %2, align 8
  store i32 1, ptr %5, align 4
  br label %21

14:                                               ; preds = %9
  %15 = load ptr, ptr %3, align 8, !tbaa !3
  %16 = load ptr, ptr %4, align 8, !tbaa !3
  %17 = getelementptr inbounds nuw %struct.KDF_X942, ptr %16, i32 0, i32 0
  store ptr %15, ptr %17, align 8, !tbaa !7
  %18 = load ptr, ptr %4, align 8, !tbaa !3
  %19 = getelementptr inbounds nuw %struct.KDF_X942, ptr %18, i32 0, i32 17
  store i32 1, ptr %19, align 8, !tbaa !15
  %20 = load ptr, ptr %4, align 8, !tbaa !3
  store ptr %20, ptr %2, align 8
  store i32 1, ptr %5, align 4
  br label %21

21:                                               ; preds = %14, %13, %8
  call void @llvm.lifetime.end.p0(i64 8, ptr %4) #6
  %22 = load ptr, ptr %2, align 8
  ret ptr %22
}

; Function Attrs: nounwind uwtable
define internal ptr @x942kdf_dup(ptr noundef %0) #0 {
  %2 = alloca ptr, align 8
  %3 = alloca ptr, align 8
  %4 = alloca ptr, align 8
  %5 = alloca ptr, align 8
  %6 = alloca i32, align 4
  store ptr %0, ptr %3, align 8, !tbaa !3
  call void @llvm.lifetime.start.p0(i64 8, ptr %4) #6
  %7 = load ptr, ptr %3, align 8, !tbaa !3
  store ptr %7, ptr %4, align 8, !tbaa !3
  call void @llvm.lifetime.start.p0(i64 8, ptr %5) #6
  %8 = load ptr, ptr %4, align 8, !tbaa !3
  %9 = getelementptr inbounds nuw %struct.KDF_X942, ptr %8, i32 0, i32 0
  %10 = load ptr, ptr %9, align 8, !tbaa !7
  %11 = call ptr @x942kdf_new(ptr noundef %10)
  store ptr %11, ptr %5, align 8, !tbaa !3
  %12 = load ptr, ptr %5, align 8, !tbaa !3
  %13 = icmp ne ptr %12, null
  br i1 %13, label %14, label %121

14:                                               ; preds = %1
  %15 = load ptr, ptr %4, align 8, !tbaa !3
  %16 = getelementptr inbounds nuw %struct.KDF_X942, ptr %15, i32 0, i32 2
  %17 = load ptr, ptr %16, align 8, !tbaa !16
  %18 = load ptr, ptr %4, align 8, !tbaa !3
  %19 = getelementptr inbounds nuw %struct.KDF_X942, ptr %18, i32 0, i32 3
  %20 = load i64, ptr %19, align 8, !tbaa !17
  %21 = load ptr, ptr %5, align 8, !tbaa !3
  %22 = getelementptr inbounds nuw %struct.KDF_X942, ptr %21, i32 0, i32 2
  %23 = load ptr, ptr %5, align 8, !tbaa !3
  %24 = getelementptr inbounds nuw %struct.KDF_X942, ptr %23, i32 0, i32 3
  %25 = call i32 @ossl_prov_memdup(ptr noundef %17, i64 noundef %20, ptr noundef %22, ptr noundef %24)
  %26 = icmp ne i32 %25, 0
  br i1 %26, label %27, label %99

27:                                               ; preds = %14
  %28 = load ptr, ptr %4, align 8, !tbaa !3
  %29 = getelementptr inbounds nuw %struct.KDF_X942, ptr %28, i32 0, i32 4
  %30 = load ptr, ptr %29, align 8, !tbaa !18
  %31 = load ptr, ptr %4, align 8, !tbaa !3
  %32 = getelementptr inbounds nuw %struct.KDF_X942, ptr %31, i32 0, i32 5
  %33 = load i64, ptr %32, align 8, !tbaa !19
  %34 = load ptr, ptr %5, align 8, !tbaa !3
  %35 = getelementptr inbounds nuw %struct.KDF_X942, ptr %34, i32 0, i32 4
  %36 = load ptr, ptr %5, align 8, !tbaa !3
  %37 = getelementptr inbounds nuw %struct.KDF_X942, ptr %36, i32 0, i32 5
  %38 = call i32 @ossl_prov_memdup(ptr noundef %30, i64 noundef %33, ptr noundef %35, ptr noundef %37)
  %39 = icmp ne i32 %38, 0
  br i1 %39, label %40, label %99

40:                                               ; preds = %27
  %41 = load ptr, ptr %4, align 8, !tbaa !3
  %42 = getelementptr inbounds nuw %struct.KDF_X942, ptr %41, i32 0, i32 6
  %43 = load ptr, ptr %42, align 8, !tbaa !20
  %44 = load ptr, ptr %4, align 8, !tbaa !3
  %45 = getelementptr inbounds nuw %struct.KDF_X942, ptr %44, i32 0, i32 10
  %46 = load i64, ptr %45, align 8, !tbaa !21
  %47 = load ptr, ptr %5, align 8, !tbaa !3
  %48 = getelementptr inbounds nuw %struct.KDF_X942, ptr %47, i32 0, i32 6
  %49 = load ptr, ptr %5, align 8, !tbaa !3
  %50 = getelementptr inbounds nuw %struct.KDF_X942, ptr %49, i32 0, i32 10
  %51 = call i32 @ossl_prov_memdup(ptr noundef %43, i64 noundef %46, ptr noundef %48, ptr noundef %50)
  %52 = icmp ne i32 %51, 0
  br i1 %52, label %53, label %99

53:                                               ; preds = %40
  %54 = load ptr, ptr %4, align 8, !tbaa !3
  %55 = getelementptr inbounds nuw %struct.KDF_X942, ptr %54, i32 0, i32 7
  %56 = load ptr, ptr %55, align 8, !tbaa !22
  %57 = load ptr, ptr %4, align 8, !tbaa !3
  %58 = getelementptr inbounds nuw %struct.KDF_X942, ptr %57, i32 0, i32 11
  %59 = load i64, ptr %58, align 8, !tbaa !23
  %60 = load ptr, ptr %5, align 8, !tbaa !3
  %61 = getelementptr inbounds nuw %struct.KDF_X942, ptr %60, i32 0, i32 7
  %62 = load ptr, ptr %5, align 8, !tbaa !3
  %63 = getelementptr inbounds nuw %struct.KDF_X942, ptr %62, i32 0, i32 11
  %64 = call i32 @ossl_prov_memdup(ptr noundef %56, i64 noundef %59, ptr noundef %61, ptr noundef %63)
  %65 = icmp ne i32 %64, 0
  br i1 %65, label %66, label %99

66:                                               ; preds = %53
  %67 = load ptr, ptr %4, align 8, !tbaa !3
  %68 = getelementptr inbounds nuw %struct.KDF_X942, ptr %67, i32 0, i32 8
  %69 = load ptr, ptr %68, align 8, !tbaa !24
  %70 = load ptr, ptr %4, align 8, !tbaa !3
  %71 = getelementptr inbounds nuw %struct.KDF_X942, ptr %70, i32 0, i32 12
  %72 = load i64, ptr %71, align 8, !tbaa !25
  %73 = load ptr, ptr %5, align 8, !tbaa !3
  %74 = getelementptr inbounds nuw %struct.KDF_X942, ptr %73, i32 0, i32 8
  %75 = load ptr, ptr %5, align 8, !tbaa !3
  %76 = getelementptr inbounds nuw %struct.KDF_X942, ptr %75, i32 0, i32 12
  %77 = call i32 @ossl_prov_memdup(ptr noundef %69, i64 noundef %72, ptr noundef %74, ptr noundef %76)
  %78 = icmp ne i32 %77, 0
  br i1 %78, label %79, label %99

79:                                               ; preds = %66
  %80 = load ptr, ptr %4, align 8, !tbaa !3
  %81 = getelementptr inbounds nuw %struct.KDF_X942, ptr %80, i32 0, i32 9
  %82 = load ptr, ptr %81, align 8, !tbaa !26
  %83 = load ptr, ptr %4, align 8, !tbaa !3
  %84 = getelementptr inbounds nuw %struct.KDF_X942, ptr %83, i32 0, i32 13
  %85 = load i64, ptr %84, align 8, !tbaa !27
  %86 = load ptr, ptr %5, align 8, !tbaa !3
  %87 = getelementptr inbounds nuw %struct.KDF_X942, ptr %86, i32 0, i32 9
  %88 = load ptr, ptr %5, align 8, !tbaa !3
  %89 = getelementptr inbounds nuw %struct.KDF_X942, ptr %88, i32 0, i32 13
  %90 = call i32 @ossl_prov_memdup(ptr noundef %82, i64 noundef %85, ptr noundef %87, ptr noundef %89)
  %91 = icmp ne i32 %90, 0
  br i1 %91, label %92, label %99

92:                                               ; preds = %79
  %93 = load ptr, ptr %5, align 8, !tbaa !3
  %94 = getelementptr inbounds nuw %struct.KDF_X942, ptr %93, i32 0, i32 1
  %95 = load ptr, ptr %4, align 8, !tbaa !3
  %96 = getelementptr inbounds nuw %struct.KDF_X942, ptr %95, i32 0, i32 1
  %97 = call i32 @ossl_prov_digest_copy(ptr noundef %94, ptr noundef %96)
  %98 = icmp ne i32 %97, 0
  br i1 %98, label %100, label %99

99:                                               ; preds = %92, %79, %66, %53, %40, %27, %14
  br label %123

100:                                              ; preds = %92
  %101 = load ptr, ptr %4, align 8, !tbaa !3
  %102 = getelementptr inbounds nuw %struct.KDF_X942, ptr %101, i32 0, i32 15
  %103 = load ptr, ptr %102, align 8, !tbaa !28
  %104 = load ptr, ptr %5, align 8, !tbaa !3
  %105 = getelementptr inbounds nuw %struct.KDF_X942, ptr %104, i32 0, i32 15
  store ptr %103, ptr %105, align 8, !tbaa !28
  %106 = load ptr, ptr %4, align 8, !tbaa !3
  %107 = getelementptr inbounds nuw %struct.KDF_X942, ptr %106, i32 0, i32 16
  %108 = load i64, ptr %107, align 8, !tbaa !29
  %109 = load ptr, ptr %5, align 8, !tbaa !3
  %110 = getelementptr inbounds nuw %struct.KDF_X942, ptr %109, i32 0, i32 16
  store i64 %108, ptr %110, align 8, !tbaa !29
  %111 = load ptr, ptr %4, align 8, !tbaa !3
  %112 = getelementptr inbounds nuw %struct.KDF_X942, ptr %111, i32 0, i32 14
  %113 = load i64, ptr %112, align 8, !tbaa !30
  %114 = load ptr, ptr %5, align 8, !tbaa !3
  %115 = getelementptr inbounds nuw %struct.KDF_X942, ptr %114, i32 0, i32 14
  store i64 %113, ptr %115, align 8, !tbaa !30
  %116 = load ptr, ptr %4, align 8, !tbaa !3
  %117 = getelementptr inbounds nuw %struct.KDF_X942, ptr %116, i32 0, i32 17
  %118 = load i32, ptr %117, align 8, !tbaa !15
  %119 = load ptr, ptr %5, align 8, !tbaa !3
  %120 = getelementptr inbounds nuw %struct.KDF_X942, ptr %119, i32 0, i32 17
  store i32 %118, ptr %120, align 8, !tbaa !15
  br label %121

121:                                              ; preds = %100, %1
  %122 = load ptr, ptr %5, align 8, !tbaa !3
  store ptr %122, ptr %2, align 8
  store i32 1, ptr %6, align 4
  br label %125

123:                                              ; preds = %99
  %124 = load ptr, ptr %5, align 8, !tbaa !3
  call void @x942kdf_free(ptr noundef %124)
  store ptr null, ptr %2, align 8
  store i32 1, ptr %6, align 4
  br label %125

125:                                              ; preds = %123, %121
  call void @llvm.lifetime.end.p0(i64 8, ptr %5) #6
  call void @llvm.lifetime.end.p0(i64 8, ptr %4) #6
  %126 = load ptr, ptr %2, align 8
  ret ptr %126
}