; Function Attrs: nounwind uwtable
define internal ptr @x942kdf_dup(ptr noundef %0) #0 {
  %2 = load ptr, ptr %0, align 8, !tbaa !3
  %3 = tail call i32 @ossl_prov_is_running() #7
  %.not.i = icmp eq i32 %3, 0
  br i1 %.not.i, label %x942kdf_new.exit.thread, label %4

4:                                                ; preds = %1
  %5 = tail call noalias ptr @CRYPTO_zalloc(i64 noundef 160, ptr noundef nonnull @.str, i32 noundef 341) #7
  %6 = icmp eq ptr %5, null
  br i1 %6, label %x942kdf_new.exit.thread, label %7

7:                                                ; preds = %4
  store ptr %2, ptr %5, align 8, !tbaa !3
  %8 = getelementptr inbounds nuw i8, ptr %5, i64 152
  store i32 1, ptr %8, align 8, !tbaa !14
  %9 = getelementptr inbounds nuw i8, ptr %0, i64 32
  %10 = load ptr, ptr %9, align 8, !tbaa !15
  %11 = getelementptr inbounds nuw i8, ptr %0, i64 40
  %12 = load i64, ptr %11, align 8, !tbaa !16
  %13 = getelementptr inbounds nuw i8, ptr %5, i64 32
  %14 = getelementptr inbounds nuw i8, ptr %5, i64 40
  %15 = tail call i32 @ossl_prov_memdup(ptr noundef %10, i64 noundef %12, ptr noundef nonnull %13, ptr noundef nonnull %14) #7
  %.not41 = icmp eq i32 %15, 0
  br i1 %.not41, label %x942kdf_free.exit, label %16

16:                                               ; preds = %7
  %17 = getelementptr inbounds nuw i8, ptr %0, i64 48
  %18 = load ptr, ptr %17, align 8, !tbaa !17
  %19 = getelementptr inbounds nuw i8, ptr %0, i64 56
  %20 = load i64, ptr %19, align 8, !tbaa !18
  %21 = getelementptr inbounds nuw i8, ptr %5, i64 48
  %22 = getelementptr inbounds nuw i8, ptr %5, i64 56
  %23 = tail call i32 @ossl_prov_memdup(ptr noundef %18, i64 noundef %20, ptr noundef nonnull %21, ptr noundef nonnull %22) #7
  %.not42 = icmp eq i32 %23, 0
  br i1 %.not42, label %x942kdf_free.exit, label %24

24:                                               ; preds = %16
  %25 = getelementptr inbounds nuw i8, ptr %0, i64 64
  %26 = load ptr, ptr %25, align 8, !tbaa !19
  %27 = getelementptr inbounds nuw i8, ptr %0, i64 96
  %28 = load i64, ptr %27, align 8, !tbaa !20
  %29 = getelementptr inbounds nuw i8, ptr %5, i64 64
  %30 = getelementptr inbounds nuw i8, ptr %5, i64 96
  %31 = tail call i32 @ossl_prov_memdup(ptr noundef %26, i64 noundef %28, ptr noundef nonnull %29, ptr noundef nonnull %30) #7
  %.not43 = icmp eq i32 %31, 0
  br i1 %.not43, label %x942kdf_free.exit, label %32

32:                                               ; preds = %24
  %33 = getelementptr inbounds nuw i8, ptr %0, i64 72
  %34 = load ptr, ptr %33, align 8, !tbaa !21
  %35 = getelementptr inbounds nuw i8, ptr %0, i64 104
  %36 = load i64, ptr %35, align 8, !tbaa !22
  %37 = getelementptr inbounds nuw i8, ptr %5, i64 72
  %38 = getelementptr inbounds nuw i8, ptr %5, i64 104
  %39 = tail call i32 @ossl_prov_memdup(ptr noundef %34, i64 noundef %36, ptr noundef nonnull %37, ptr noundef nonnull %38) #7
  %.not44 = icmp eq i32 %39, 0
  br i1 %.not44, label %x942kdf_free.exit, label %40

40:                                               ; preds = %32
  %41 = getelementptr inbounds nuw i8, ptr %0, i64 80
  %42 = load ptr, ptr %41, align 8, !tbaa !23
  %43 = getelementptr inbounds nuw i8, ptr %0, i64 112
  %44 = load i64, ptr %43, align 8, !tbaa !24
  %45 = getelementptr inbounds nuw i8, ptr %5, i64 80
  %46 = getelementptr inbounds nuw i8, ptr %5, i64 112
  %47 = tail call i32 @ossl_prov_memdup(ptr noundef %42, i64 noundef %44, ptr noundef nonnull %45, ptr noundef nonnull %46) #7
  %.not45 = icmp eq i32 %47, 0
  br i1 %.not45, label %x942kdf_free.exit, label %48

48:                                               ; preds = %40
  %49 = getelementptr inbounds nuw i8, ptr %0, i64 88
  %50 = load ptr, ptr %49, align 8, !tbaa !25
  %51 = getelementptr inbounds nuw i8, ptr %0, i64 120
  %52 = load i64, ptr %51, align 8, !tbaa !26
  %53 = getelementptr inbounds nuw i8, ptr %5, i64 88
  %54 = getelementptr inbounds nuw i8, ptr %5, i64 120
  %55 = tail call i32 @ossl_prov_memdup(ptr noundef %50, i64 noundef %52, ptr noundef nonnull %53, ptr noundef nonnull %54) #7
  %.not46 = icmp eq i32 %55, 0
  br i1 %.not46, label %x942kdf_free.exit, label %56

56:                                               ; preds = %48
  %57 = getelementptr inbounds nuw i8, ptr %5, i64 8
  %58 = getelementptr inbounds nuw i8, ptr %0, i64 8
  %59 = tail call i32 @ossl_prov_digest_copy(ptr noundef nonnull %57, ptr noundef nonnull %58) #7
  %.not47 = icmp eq i32 %59, 0
  br i1 %.not47, label %x942kdf_free.exit, label %60

60:                                               ; preds = %56
  %61 = getelementptr inbounds nuw i8, ptr %0, i64 136
  %62 = load ptr, ptr %61, align 8, !tbaa !27
  %63 = getelementptr inbounds nuw i8, ptr %5, i64 136
  store ptr %62, ptr %63, align 8, !tbaa !27
  %64 = getelementptr inbounds nuw i8, ptr %0, i64 144
  %65 = load i64, ptr %64, align 8, !tbaa !28
  %66 = getelementptr inbounds nuw i8, ptr %5, i64 144
  store i64 %65, ptr %66, align 8, !tbaa !28
  %67 = getelementptr inbounds nuw i8, ptr %0, i64 128
  %68 = load i64, ptr %67, align 8, !tbaa !29
  %69 = getelementptr inbounds nuw i8, ptr %5, i64 128
  store i64 %68, ptr %69, align 8, !tbaa !29
  %70 = getelementptr inbounds nuw i8, ptr %0, i64 152
  %71 = load i32, ptr %70, align 8, !tbaa !14
  store i32 %71, ptr %8, align 8, !tbaa !14
  br label %x942kdf_new.exit.thread

x942kdf_free.exit:                                ; preds = %7, %16, %24, %32, %40, %48, %56
  tail call void @x942kdf_reset(ptr noundef nonnull %5)
  tail call void @CRYPTO_free(ptr noundef nonnull %5, ptr noundef nonnull @.str, i32 noundef 374) #7
  br label %x942kdf_new.exit.thread

x942kdf_new.exit.thread:                          ; preds = %4, %1, %60, %x942kdf_free.exit
  %.0 = phi ptr [ null, %x942kdf_free.exit ], [ %5, %60 ], [ null, %1 ], [ null, %4 ]
  ret ptr %.0
}